; Function Attrs: nounwind uwtable
define hidden void @zif_is_numeric(ptr nocapture noundef readonly %0, ptr nocapture noundef writeonly %1) local_unnamed_addr #0 {
  %3 = getelementptr inbounds i8, ptr %0, i64 44
  %4 = load i32, ptr %3, align 4
  %cond = icmp eq i32 %4, 1
  br i1 %cond, label %6, label %5

5:                                                ; preds = %2
  tail call void @zend_wrong_parameters_count_error(i32 noundef 1, i32 noundef 1) #8
  tail call void @zend_wrong_parameter_error(i32 noundef 1, i32 noundef 0, ptr noundef null, i32 noundef 0, ptr noundef null) #8
  br label %22

6:                                                ; preds = %2
  %7 = getelementptr inbounds i8, ptr %0, i64 88
  %8 = load i8, ptr %7, align 8
  switch i8 %8, label %20 [
    i8 4, label %_zend_is_numeric.exit
    i8 5, label %_zend_is_numeric.exit
    i8 6, label %9
  ]

9:                                                ; preds = %6
  %10 = getelementptr inbounds i8, ptr %0, i64 80
  %11 = load ptr, ptr %10, align 8
  %12 = getelementptr inbounds i8, ptr %11, i64 24
  %13 = load i8, ptr %12, align 1
  %14 = icmp sgt i8 %13, 57
  br i1 %14, label %.critedge.i, label %15

15:                                               ; preds = %9
  %16 = getelementptr inbounds i8, ptr %11, i64 16
  %17 = load i64, ptr %16, align 8
  %18 = tail call zeroext i8 @_is_numeric_string_ex(ptr noundef nonnull %12, i64 noundef %17, ptr noundef null, ptr noundef null, i1 noundef zeroext false, ptr noundef null, ptr noundef null) #8
  %19 = icmp eq i8 %18, 0
  br i1 %19, label %.critedge.i, label %_zend_is_numeric.exit

.critedge.i:                                      ; preds = %15, %9
  br label %_zend_is_numeric.exit

20:                                               ; preds = %6
  br label %_zend_is_numeric.exit

_zend_is_numeric.exit:                            ; preds = %6, %6, %15, %.critedge.i, %20
  %.sink.i = phi i32 [ 2, %20 ], [ 2, %.critedge.i ], [ 3, %6 ], [ 3, %6 ], [ 3, %15 ]
  %21 = getelementptr inbounds i8, ptr %1, i64 8
  store i32 %.sink.i, ptr %21, align 8
  br label %22

22:                                               ; preds = %_zend_is_numeric.exit, %5
  ret void
}